; Function Attrs: mustprogress nofree norecurse nosync nounwind willreturn memory(none) uwtable
define noundef i32 @_ZN6icu_7712PropNameData12findPropertyEi(i32 noundef %0) local_unnamed_addr #2 align 2 {
  br label %2

2:                                                ; preds = %1, %14
  %.01941 = phi i32 [ 1, %1 ], [ %17, %14 ]
  %.02340 = phi i32 [ 6, %1 ], [ %18, %14 ]
  %3 = sext i32 %.01941 to i64
  %4 = getelementptr inbounds [1494 x i32], ptr @_ZN6icu_7712PropNameData9valueMapsE, i64 0, i64 %3
  %5 = load i32, ptr %4, align 4, !tbaa !10
  %6 = add nsw i32 %.01941, 1
  %7 = sext i32 %6 to i64
  %8 = getelementptr inbounds [1494 x i32], ptr @_ZN6icu_7712PropNameData9valueMapsE, i64 0, i64 %7
  %9 = load i32, ptr %8, align 4, !tbaa !10
  %10 = add nsw i32 %.01941, 2
  %11 = icmp slt i32 %0, %5
  br i1 %11, label %.thread31, label %12

12:                                               ; preds = %2
  %13 = icmp slt i32 %0, %9
  br i1 %13, label %20, label %14

14:                                               ; preds = %12
  %15 = sub nsw i32 %9, %5
  %16 = shl nsw i32 %15, 1
  %17 = add nsw i32 %16, %10
  %18 = add nsw i32 %.02340, -1
  %19 = icmp ugt i32 %.02340, 1
  br i1 %19, label %2, label %.thread31, !llvm.loop !12

20:                                               ; preds = %12
  %21 = sub nsw i32 %0, %5
  %22 = shl nsw i32 %21, 1
  %23 = add nsw i32 %22, %10
  br label %.thread31

.thread31:                                        ; preds = %2, %14, %20
  %24 = phi i32 [ %23, %20 ], [ 0, %14 ], [ 0, %2 ]
  ret i32 %24
}